; Function Attrs: mustprogress nounwind uwtable
define dso_local noundef ptr @LLVMBuildIsNotNull(ptr noundef %0, ptr noundef %1, ptr noundef %2) local_unnamed_addr #0 {
  %4 = alloca %"class.llvm::Twine", align 8
  %5 = getelementptr inbounds nuw i8, ptr %4, i64 33
  store i8 1, ptr %5, align 1
  %6 = load i8, ptr %2, align 1
  %.not.i = icmp eq i8 %6, 0
  br i1 %.not.i, label %_ZN4llvm5TwineC2EPKc.exit, label %7

7:                                                ; preds = %3
  store ptr %2, ptr %4, align 8
  br label %_ZN4llvm5TwineC2EPKc.exit

_ZN4llvm5TwineC2EPKc.exit:                        ; preds = %3, %7
  %storemerge.i = phi i8 [ 3, %7 ], [ 1, %3 ]
  %8 = getelementptr inbounds nuw i8, ptr %4, i64 32
  store i8 %storemerge.i, ptr %8, align 8
  %9 = getelementptr inbounds nuw i8, ptr %1, i64 8
  %10 = load ptr, ptr %9, align 8
  %11 = tail call noundef ptr @_ZN4llvm8Constant12getNullValueEPNS_4TypeE(ptr noundef %10) #35
  %12 = call noundef ptr @_ZN4llvm13IRBuilderBase10CreateICmpENS_7CmpInst9PredicateEPNS_5ValueES4_RKNS_5TwineE(ptr noundef nonnull align 8 dereferenceable(128) %0, i32 noundef 33, ptr noundef nonnull %1, ptr noundef %11, ptr noundef nonnull align 8 dereferenceable(34) %4)
  ret ptr %12
}